target datalayout = "e-m:e-p270:32:32-p271:32:32-p272:64:64-i64:64-i128:128-f80:128-n8:16:32:64-S128"
target triple = "x86_64-pc-linux-gnu"

%struct.GetBitContext = type { ptr, ptr, i32, i32, i32 }
%struct.JXLHybridUintConf = type { i32, i32, i32 }

@ff_log2_tab = external constant [256 x i8], align 16

; Function Attrs: inlinehint nounwind willreturn memory(none) uwtable
define internal i32 @zero_extend(i32 noundef %0, i32 noundef %1) #6 {
  %3 = alloca i32, align 4
  %4 = alloca i32, align 4
  store i32 %0, ptr %3, align 4, !tbaa !18
  store i32 %1, ptr %4, align 4, !tbaa !18
  %5 = load i32, ptr %3, align 4, !tbaa !18
  %6 = load i32, ptr %4, align 4, !tbaa !18
  %7 = zext i32 %6 to i64
  %8 = sub i64 32, %7
  %9 = trunc i64 %8 to i32
  %10 = shl i32 %5, %9
  %11 = load i32, ptr %4, align 4, !tbaa !18
  %12 = zext i32 %11 to i64
  %13 = sub i64 32, %12
  %14 = trunc i64 %13 to i32
  %15 = lshr i32 %10, %14
  ret i32 %15
}

; Function Attrs: inlinehint nounwind uwtable
define internal i32 @get_bits(ptr noundef %0, i32 noundef %1) #4 {
  %3 = alloca ptr, align 8
  %4 = alloca i32, align 4
  %5 = alloca i32, align 4
  %6 = alloca i32, align 4
  %7 = alloca i32, align 4
  %8 = alloca i32, align 4
  store ptr %0, ptr %3, align 8, !tbaa !77
  store i32 %1, ptr %4, align 4, !tbaa !18
  call void @llvm.lifetime.start.p0(i64 4, ptr %5) #9
  call void @llvm.lifetime.start.p0(i64 4, ptr %6) #9
  %9 = load ptr, ptr %3, align 8, !tbaa !77
  %10 = getelementptr inbounds nuw %struct.GetBitContext, ptr %9, i32 0, i32 2
  %11 = load i32, ptr %10, align 8, !tbaa !79
  store i32 %11, ptr %6, align 4, !tbaa !18
  call void @llvm.lifetime.start.p0(i64 4, ptr %7) #9
  call void @llvm.lifetime.start.p0(i64 4, ptr %8) #9
  %12 = load ptr, ptr %3, align 8, !tbaa !77
  %13 = getelementptr inbounds nuw %struct.GetBitContext, ptr %12, i32 0, i32 4
  %14 = load i32, ptr %13, align 8, !tbaa !81
  store i32 %14, ptr %8, align 4, !tbaa !18
  %15 = load ptr, ptr %3, align 8, !tbaa !77
  %16 = getelementptr inbounds nuw %struct.GetBitContext, ptr %15, i32 0, i32 0
  %17 = load ptr, ptr %16, align 8, !tbaa !85
  %18 = load i32, ptr %6, align 4, !tbaa !18
  %19 = lshr i32 %18, 3
  %20 = zext i32 %19 to i64
  %21 = getelementptr inbounds nuw i8, ptr %17, i64 %20
  %22 = load i32, ptr %21, align 1, !tbaa !43
  %23 = load i32, ptr %6, align 4, !tbaa !18
  %24 = and i32 %23, 7
  %25 = lshr i32 %22, %24
  store i32 %25, ptr %7, align 4, !tbaa !18
  %26 = load i32, ptr %7, align 4, !tbaa !18
  %27 = load i32, ptr %4, align 4, !tbaa !18
  %28 = call i32 @zero_extend(i32 noundef %26, i32 noundef %27) #10
  store i32 %28, ptr %5, align 4, !tbaa !18
  %29 = load i32, ptr %8, align 4, !tbaa !18
  %30 = load i32, ptr %6, align 4, !tbaa !18
  %31 = load i32, ptr %4, align 4, !tbaa !18
  %32 = add i32 %30, %31
  %33 = icmp ugt i32 %29, %32
  br i1 %33, label %34, label %38

34:                                               ; preds = %2
  %35 = load i32, ptr %6, align 4, !tbaa !18
  %36 = load i32, ptr %4, align 4, !tbaa !18
  %37 = add i32 %35, %36
  br label %40

38:                                               ; preds = %2
  %39 = load i32, ptr %8, align 4, !tbaa !18
  br label %40

40:                                               ; preds = %38, %34
  %41 = phi i32 [ %37, %34 ], [ %39, %38 ]
  store i32 %41, ptr %6, align 4, !tbaa !18
  %42 = load i32, ptr %6, align 4, !tbaa !18
  %43 = load ptr, ptr %3, align 8, !tbaa !77
  %44 = getelementptr inbounds nuw %struct.GetBitContext, ptr %43, i32 0, i32 2
  store i32 %42, ptr %44, align 8, !tbaa !79
  %45 = load i32, ptr %5, align 4, !tbaa !18
  call void @llvm.lifetime.end.p0(i64 4, ptr %8) #9
  call void @llvm.lifetime.end.p0(i64 4, ptr %7) #9
  call void @llvm.lifetime.end.p0(i64 4, ptr %6) #9
  call void @llvm.lifetime.end.p0(i64 4, ptr %5) #9
  ret i32 %45
}

; Function Attrs: alwaysinline nounwind uwtable
define internal i32 @get_bitsz(ptr noundef %0, i32 noundef %1) #7 {
  %3 = alloca ptr, align 8
  %4 = alloca i32, align 4
  store ptr %0, ptr %3, align 8, !tbaa !77
  store i32 %1, ptr %4, align 4, !tbaa !18
  %5 = load i32, ptr %4, align 4, !tbaa !18
  %6 = icmp ne i32 %5, 0
  br i1 %6, label %7, label %11

7:                                                ; preds = %2
  %8 = load ptr, ptr %3, align 8, !tbaa !77
  %9 = load i32, ptr %4, align 4, !tbaa !18
  %10 = call i32 @get_bits(ptr noundef %8, i32 noundef %9)
  br label %12

11:                                               ; preds = %2
  br label %12

12:                                               ; preds = %11, %7
  %13 = phi i32 [ %10, %7 ], [ 0, %11 ]
  ret i32 %13
}

; Function Attrs: alwaysinline nounwind willreturn memory(none) uwtable
define internal i32 @ff_log2_c(i32 noundef %0) #5 {
  %2 = alloca i32, align 4
  %3 = alloca i32, align 4
  store i32 %0, ptr %2, align 4, !tbaa !18
  call void @llvm.lifetime.start.p0(i64 4, ptr %3) #9
  store i32 0, ptr %3, align 4, !tbaa !18
  %4 = load i32, ptr %2, align 4, !tbaa !18
  %5 = and i32 %4, -65536
  %6 = icmp ne i32 %5, 0
  br i1 %6, label %7, label %12

7:                                                ; preds = %1
  %8 = load i32, ptr %2, align 4, !tbaa !18
  %9 = lshr i32 %8, 16
  store i32 %9, ptr %2, align 4, !tbaa !18
  %10 = load i32, ptr %3, align 4, !tbaa !18
  %11 = add nsw i32 %10, 16
  store i32 %11, ptr %3, align 4, !tbaa !18
  br label %12

12:                                               ; preds = %7, %1
  %13 = load i32, ptr %2, align 4, !tbaa !18
  %14 = and i32 %13, 65280
  %15 = icmp ne i32 %14, 0
  br i1 %15, label %16, label %21

16:                                               ; preds = %12
  %17 = load i32, ptr %2, align 4, !tbaa !18
  %18 = lshr i32 %17, 8
  store i32 %18, ptr %2, align 4, !tbaa !18
  %19 = load i32, ptr %3, align 4, !tbaa !18
  %20 = add nsw i32 %19, 8
  store i32 %20, ptr %3, align 4, !tbaa !18
  br label %21

21:                                               ; preds = %16, %12
  %22 = load i32, ptr %2, align 4, !tbaa !18
  %23 = zext i32 %22 to i64
  %24 = getelementptr inbounds nuw [256 x i8], ptr @ff_log2_tab, i64 0, i64 %23
  %25 = load i8, ptr %24, align 1, !tbaa !43
  %26 = zext i8 %25 to i32
  %27 = load i32, ptr %3, align 4, !tbaa !18
  %28 = add nsw i32 %27, %26
  store i32 %28, ptr %3, align 4, !tbaa !18
  %29 = load i32, ptr %3, align 4, !tbaa !18
  call void @llvm.lifetime.end.p0(i64 4, ptr %3) #9
  ret i32 %29
}

; Function Attrs: nounwind uwtable
define internal i32 @read_hybrid_uint_conf(ptr noundef %0, ptr noundef %1, i32 noundef %2) #0 {
  %4 = alloca i32, align 4
  %5 = alloca ptr, align 8
  %6 = alloca ptr, align 8
  %7 = alloca i32, align 4
  store ptr %0, ptr %5, align 8, !tbaa !77
  store ptr %1, ptr %6, align 8, !tbaa !136
  store i32 %2, ptr %7, align 4, !tbaa !18
  %8 = load ptr, ptr %5, align 8, !tbaa !77
  %9 = load i32, ptr %7, align 4, !tbaa !18
  %10 = call i32 @ff_log2_c(i32 noundef %9) #10
  %11 = load i32, ptr %7, align 4, !tbaa !18
  %12 = icmp ne i32 %11, 0
  %13 = xor i1 %12, true
  %14 = xor i1 %13, true
  %15 = zext i1 %14 to i32
  %16 = add nsw i32 %10, %15
  %17 = call i32 @get_bitsz(ptr noundef %8, i32 noundef %16)
  %18 = load ptr, ptr %6, align 8, !tbaa !136
  %19 = getelementptr inbounds nuw %struct.JXLHybridUintConf, ptr %18, i32 0, i32 0
  store i32 %17, ptr %19, align 4, !tbaa !138
  %20 = load ptr, ptr %6, align 8, !tbaa !136
  %21 = getelementptr inbounds nuw %struct.JXLHybridUintConf, ptr %20, i32 0, i32 0
  %22 = load i32, ptr %21, align 4, !tbaa !138
  %23 = load i32, ptr %7, align 4, !tbaa !18
  %24 = icmp eq i32 %22, %23
  br i1 %24, label %25, label %30

25:                                               ; preds = %3
  %26 = load ptr, ptr %6, align 8, !tbaa !136
  %27 = getelementptr inbounds nuw %struct.JXLHybridUintConf, ptr %26, i32 0, i32 2
  store i32 0, ptr %27, align 4, !tbaa !139
  %28 = load ptr, ptr %6, align 8, !tbaa !136
  %29 = getelementptr inbounds nuw %struct.JXLHybridUintConf, ptr %28, i32 0, i32 1
  store i32 0, ptr %29, align 4, !tbaa !140
  store i32 0, ptr %4, align 4
  br label %93

30:                                               ; preds = %3
  %31 = load ptr, ptr %5, align 8, !tbaa !77
  %32 = load ptr, ptr %6, align 8, !tbaa !136
  %33 = getelementptr inbounds nuw %struct.JXLHybridUintConf, ptr %32, i32 0, i32 0
  %34 = load i32, ptr %33, align 4, !tbaa !138
  %35 = call i32 @ff_log2_c(i32 noundef %34) #10
  %36 = load ptr, ptr %6, align 8, !tbaa !136
  %37 = getelementptr inbounds nuw %struct.JXLHybridUintConf, ptr %36, i32 0, i32 0
  %38 = load i32, ptr %37, align 4, !tbaa !138
  %39 = icmp ne i32 %38, 0
  %40 = xor i1 %39, true
  %41 = xor i1 %40, true
  %42 = zext i1 %41 to i32
  %43 = add nsw i32 %35, %42
  %44 = call i32 @get_bitsz(ptr noundef %31, i32 noundef %43)
  %45 = load ptr, ptr %6, align 8, !tbaa !136
  %46 = getelementptr inbounds nuw %struct.JXLHybridUintConf, ptr %45, i32 0, i32 1
  store i32 %44, ptr %46, align 4, !tbaa !140
  %47 = load ptr, ptr %6, align 8, !tbaa !136
  %48 = getelementptr inbounds nuw %struct.JXLHybridUintConf, ptr %47, i32 0, i32 1
  %49 = load i32, ptr %48, align 4, !tbaa !140
  %50 = load ptr, ptr %6, align 8, !tbaa !136
  %51 = getelementptr inbounds nuw %struct.JXLHybridUintConf, ptr %50, i32 0, i32 0
  %52 = load i32, ptr %51, align 4, !tbaa !138
  %53 = icmp ugt i32 %49, %52
  br i1 %53, label %54, label %55

54:                                               ; preds = %30
  store i32 -1094995529, ptr %4, align 4
  br label %93

55:                                               ; preds = %30
  %56 = load ptr, ptr %5, align 8, !tbaa !77
  %57 = load ptr, ptr %6, align 8, !tbaa !136
  %58 = getelementptr inbounds nuw %struct.JXLHybridUintConf, ptr %57, i32 0, i32 0
  %59 = load i32, ptr %58, align 4, !tbaa !138
  %60 = load ptr, ptr %6, align 8, !tbaa !136
  %61 = getelementptr inbounds nuw %struct.JXLHybridUintConf, ptr %60, i32 0, i32 1
  %62 = load i32, ptr %61, align 4, !tbaa !140
  %63 = sub i32 %59, %62
  %64 = call i32 @ff_log2_c(i32 noundef %63) #10
  %65 = load ptr, ptr %6, align 8, !tbaa !136
  %66 = getelementptr inbounds nuw %struct.JXLHybridUintConf, ptr %65, i32 0, i32 0
  %67 = load i32, ptr %66, align 4, !tbaa !138
  %68 = load ptr, ptr %6, align 8, !tbaa !136
  %69 = getelementptr inbounds nuw %struct.JXLHybridUintConf, ptr %68, i32 0, i32 1
  %70 = load i32, ptr %69, align 4, !tbaa !140
  %71 = sub i32 %67, %70
  %72 = icmp ne i32 %71, 0
  %73 = xor i1 %72, true
  %74 = xor i1 %73, true
  %75 = zext i1 %74 to i32
  %76 = add nsw i32 %64, %75
  %77 = call i32 @get_bitsz(ptr noundef %56, i32 noundef %76)
  %78 = load ptr, ptr %6, align 8, !tbaa !136
  %79 = getelementptr inbounds nuw %struct.JXLHybridUintConf, ptr %78, i32 0, i32 2
  store i32 %77, ptr %79, align 4, !tbaa !139
  %80 = load ptr, ptr %6, align 8, !tbaa !136
  %81 = getelementptr inbounds nuw %struct.JXLHybridUintConf, ptr %80, i32 0, i32 1
  %82 = load i32, ptr %81, align 4, !tbaa !140
  %83 = load ptr, ptr %6, align 8, !tbaa !136
  %84 = getelementptr inbounds nuw %struct.JXLHybridUintConf, ptr %83, i32 0, i32 2
  %85 = load i32, ptr %84, align 4, !tbaa !139
  %86 = add i32 %82, %85
  %87 = load ptr, ptr %6, align 8, !tbaa !136
  %88 = getelementptr inbounds nuw %struct.JXLHybridUintConf, ptr %87, i32 0, i32 0
  %89 = load i32, ptr %88, align 4, !tbaa !138
  %90 = icmp ugt i32 %86, %89
  br i1 %90, label %91, label %92

91:                                               ; preds = %55
  store i32 -1094995529, ptr %4, align 4
  br label %93

92:                                               ; preds = %55
  store i32 0, ptr %4, align 4
  br label %93

93:                                               ; preds = %92, %91, %54, %25
  %94 = load i32, ptr %4, align 4
  ret i32 %94
}