; Function Attrs: mustprogress nofree norecurse nosync nounwind willreturn memory(read, argmem: readwrite, inaccessiblemem: none) uwtable
define internal fastcc range(i32 -1094995529, 1) i32 @read_hybrid_uint_conf(ptr noundef nonnull captures(none) %0, ptr noundef writeonly captures(none) initializes((0, 8)) %1, i32 noundef %2) unnamed_addr #5 {
  %.not.i30 = icmp ult i32 %2, 65536
  %4 = lshr i32 %2, 16
  %spec.select.i = select i1 %.not.i30, i32 %2, i32 %4
  %spec.select12.i = select i1 %.not.i30, i32 0, i32 16
  %.not11.i = icmp samesign ult i32 %spec.select.i, 256
  %5 = lshr i32 %spec.select.i, 8
  %6 = or disjoint i32 %spec.select12.i, 8
  %.110.i = select i1 %.not11.i, i32 %spec.select.i, i32 %5
  %.1.i = select i1 %.not11.i, i32 %spec.select12.i, i32 %6
  %7 = zext nneg i32 %.110.i to i64
  %8 = getelementptr inbounds nuw [256 x i8], ptr @ff_log2_tab, i64 0, i64 %7
  %9 = load i8, ptr %8, align 1, !tbaa !28
  %10 = zext i8 %9 to i32
  %11 = icmp ne i32 %2, 0
  %12 = zext i1 %11 to i32
  %13 = or disjoint i32 %.1.i, %12
  %14 = add nuw nsw i32 %13, %10
  %.not.i = icmp eq i32 %14, 0
  br i1 %.not.i, label %get_bitsz.exit, label %15

15:                                               ; preds = %3
  %16 = getelementptr inbounds nuw i8, ptr %0, i64 16
  %17 = load i32, ptr %16, align 8, !tbaa !65
  %18 = getelementptr inbounds nuw i8, ptr %0, i64 24
  %19 = load i32, ptr %18, align 8, !tbaa !63
  %20 = load ptr, ptr %0, align 8, !tbaa !60
  %21 = lshr i32 %17, 3
  %22 = zext nneg i32 %21 to i64
  %23 = getelementptr inbounds nuw i8, ptr %20, i64 %22
  %24 = load i32, ptr %23, align 1, !tbaa !28
  %25 = and i32 %17, 7
  %26 = lshr i32 %24, %25
  %27 = sub nsw i32 32, %14
  %28 = lshr i32 -1, %27
  %29 = and i32 %26, %28
  %30 = add i32 %17, %14
  %31 = tail call i32 @llvm.umin.i32(i32 %19, i32 %30)
  store i32 %31, ptr %16, align 8, !tbaa !65
  br label %get_bitsz.exit

get_bitsz.exit:                                   ; preds = %3, %15
  %32 = phi i32 [ %29, %15 ], [ 0, %3 ]
  store i32 %32, ptr %1, align 4, !tbaa !146
  %33 = icmp eq i32 %32, %2
  br i1 %33, label %34, label %37

34:                                               ; preds = %get_bitsz.exit
  %35 = getelementptr inbounds nuw i8, ptr %1, i64 8
  store i32 0, ptr %35, align 4, !tbaa !147
  %36 = getelementptr inbounds nuw i8, ptr %1, i64 4
  store i32 0, ptr %36, align 4, !tbaa !148
  br label %102

37:                                               ; preds = %get_bitsz.exit
  %.not.i31 = icmp ult i32 %32, 65536
  %38 = lshr i32 %32, 16
  %spec.select.i32 = select i1 %.not.i31, i32 %32, i32 %38
  %spec.select12.i33 = select i1 %.not.i31, i32 0, i32 16
  %.not11.i34 = icmp samesign ult i32 %spec.select.i32, 256
  %39 = lshr i32 %spec.select.i32, 8
  %40 = or disjoint i32 %spec.select12.i33, 8
  %.110.i35 = select i1 %.not11.i34, i32 %spec.select.i32, i32 %39
  %.1.i36 = select i1 %.not11.i34, i32 %spec.select12.i33, i32 %40
  %41 = zext nneg i32 %.110.i35 to i64
  %42 = getelementptr inbounds nuw [256 x i8], ptr @ff_log2_tab, i64 0, i64 %41
  %43 = load i8, ptr %42, align 1, !tbaa !28
  %44 = zext i8 %43 to i32
  %45 = icmp ne i32 %32, 0
  %46 = zext i1 %45 to i32
  %47 = or disjoint i32 %.1.i36, %46
  %48 = add nuw nsw i32 %47, %44
  %.not.i26 = icmp eq i32 %48, 0
  br i1 %.not.i26, label %get_bitsz.exit27.thread, label %get_bitsz.exit27

get_bitsz.exit27.thread:                          ; preds = %37
  %49 = getelementptr inbounds nuw i8, ptr %1, i64 4
  store i32 0, ptr %49, align 4, !tbaa !148
  br label %get_bitsz.exit27._crit_edge

get_bitsz.exit27:                                 ; preds = %37
  %50 = getelementptr inbounds nuw i8, ptr %0, i64 16
  %51 = load i32, ptr %50, align 8, !tbaa !65
  %52 = getelementptr inbounds nuw i8, ptr %0, i64 24
  %53 = load i32, ptr %52, align 8, !tbaa !63
  %54 = load ptr, ptr %0, align 8, !tbaa !60
  %55 = lshr i32 %51, 3
  %56 = zext nneg i32 %55 to i64
  %57 = getelementptr inbounds nuw i8, ptr %54, i64 %56
  %58 = load i32, ptr %57, align 1, !tbaa !28
  %59 = and i32 %51, 7
  %60 = lshr i32 %58, %59
  %61 = sub nsw i32 32, %48
  %62 = lshr i32 -1, %61
  %63 = and i32 %60, %62
  %64 = add i32 %51, %48
  %65 = tail call i32 @llvm.umin.i32(i32 %53, i32 %64)
  store i32 %65, ptr %50, align 8, !tbaa !65
  %66 = getelementptr inbounds nuw i8, ptr %1, i64 4
  store i32 %63, ptr %66, align 4, !tbaa !148
  %67 = icmp ugt i32 %63, %32
  br i1 %67, label %102, label %get_bitsz.exit27._crit_edge

get_bitsz.exit27._crit_edge:                      ; preds = %get_bitsz.exit27, %get_bitsz.exit27.thread
  %68 = phi i32 [ 0, %get_bitsz.exit27.thread ], [ %63, %get_bitsz.exit27 ]
  %69 = sub nuw i32 %32, %68
  %.not.i37 = icmp ult i32 %69, 65536
  %70 = lshr i32 %69, 16
  %spec.select.i38 = select i1 %.not.i37, i32 %69, i32 %70
  %spec.select12.i39 = select i1 %.not.i37, i32 0, i32 16
  %.not11.i40 = icmp samesign ult i32 %spec.select.i38, 256
  %71 = lshr i32 %spec.select.i38, 8
  %72 = or disjoint i32 %spec.select12.i39, 8
  %.110.i41 = select i1 %.not11.i40, i32 %spec.select.i38, i32 %71
  %.1.i42 = select i1 %.not11.i40, i32 %spec.select12.i39, i32 %72
  %73 = zext nneg i32 %.110.i41 to i64
  %74 = getelementptr inbounds nuw [256 x i8], ptr @ff_log2_tab, i64 0, i64 %73
  %75 = load i8, ptr %74, align 1, !tbaa !28
  %76 = zext i8 %75 to i32
  %77 = icmp ne i32 %32, %68
  %78 = zext i1 %77 to i32
  %79 = add nuw nsw i32 %78, %76
  %80 = add nuw nsw i32 %79, %.1.i42
  %.not.i28 = icmp eq i32 %80, 0
  br i1 %.not.i28, label %get_bitsz.exit29, label %81

81:                                               ; preds = %get_bitsz.exit27._crit_edge
  %82 = getelementptr inbounds nuw i8, ptr %0, i64 16
  %83 = load i32, ptr %82, align 8, !tbaa !65
  %84 = getelementptr inbounds nuw i8, ptr %0, i64 24
  %85 = load i32, ptr %84, align 8, !tbaa !63
  %86 = load ptr, ptr %0, align 8, !tbaa !60
  %87 = lshr i32 %83, 3
  %88 = zext nneg i32 %87 to i64
  %89 = getelementptr inbounds nuw i8, ptr %86, i64 %88
  %90 = load i32, ptr %89, align 1, !tbaa !28
  %91 = and i32 %83, 7
  %92 = lshr i32 %90, %91
  %93 = sub nsw i32 32, %80
  %94 = lshr i32 -1, %93
  %95 = and i32 %92, %94
  %96 = add i32 %83, %80
  %97 = tail call i32 @llvm.umin.i32(i32 %85, i32 %96)
  store i32 %97, ptr %82, align 8, !tbaa !65
  br label %get_bitsz.exit29

get_bitsz.exit29:                                 ; preds = %get_bitsz.exit27._crit_edge, %81
  %98 = phi i32 [ %95, %81 ], [ 0, %get_bitsz.exit27._crit_edge ]
  %99 = getelementptr inbounds nuw i8, ptr %1, i64 8
  store i32 %98, ptr %99, align 4, !tbaa !147
  %100 = add i32 %98, %68
  %101 = icmp ugt i32 %100, %32
  %. = select i1 %101, i32 -1094995529, i32 0
  br label %102

102:                                              ; preds = %get_bitsz.exit29, %get_bitsz.exit27, %34
  %.0 = phi i32 [ 0, %34 ], [ -1094995529, %get_bitsz.exit27 ], [ %., %get_bitsz.exit29 ]
  ret i32 %.0
}